target datalayout = "e-m:e-p270:32:32-p271:32:32-p272:64:64-i64:64-i128:128-f80:128-n8:16:32:64-S128"
target triple = "x86_64-pc-linux-gnu"

%struct.Ssw_Man_t_ = type { ptr, i32, ptr, ptr, ptr, ptr, i32, ptr, ptr, ptr, i32, i32, i32, i32, i32, i32, i32, i32, i32, i32, i32, ptr, i32, ptr, i32, i32, i32, i32, ptr, ptr, ptr, i32, ptr, i32, i32, ptr, ptr, ptr, i32, ptr, i32, i32, i32, i32, i32, i32, i32, i32, i32, i32, i32, i32, i32, i32, i32, i32, i32, i32, i32, i32, i32, i32, i64, i64, i64, i64, i64, i64, i64, i64, i64, i64 }
%struct.Aig_Obj_t_ = type { %union.anon, ptr, ptr, i64, i32, i32, %union.anon.0 }
%union.anon = type { ptr }
%union.anon.0 = type { ptr }
%struct.Aig_Man_t_ = type { ptr, ptr, ptr, ptr, ptr, ptr, ptr, %struct.Aig_Obj_t_, i32, i32, i32, i32, i32, i32, [7 x i32], i32, ptr, i32, ptr, i32, ptr, i32, i32, i32, ptr, i32, i32, i32, i32, i32, ptr, ptr, i32, ptr, ptr, i32, ptr, ptr, i32, i32, i32, ptr, ptr, ptr, ptr, ptr, ptr, ptr, ptr, ptr, ptr, ptr, ptr, ptr, ptr, i32, ptr, ptr, ptr, ptr, i32, i64, i64, i64, ptr, ptr }
%struct.Vec_Ptr_t_ = type { i32, i32, ptr }

; Function Attrs: inlinehint nounwind uwtable
define internal ptr @Aig_Not(ptr noundef %0) #2 {
  %2 = alloca ptr, align 8
  store ptr %0, ptr %2, align 8, !tbaa !32
  %3 = load ptr, ptr %2, align 8, !tbaa !32
  %4 = ptrtoint ptr %3 to i64
  %5 = xor i64 %4, 1
  %6 = inttoptr i64 %5 to ptr
  ret ptr %6
}

; Function Attrs: inlinehint nounwind uwtable
define internal i32 @Saig_ManPiNum(ptr noundef %0) #2 {
  %2 = alloca ptr, align 8
  store ptr %0, ptr %2, align 8, !tbaa !36
  %3 = load ptr, ptr %2, align 8, !tbaa !36
  %4 = getelementptr inbounds nuw %struct.Aig_Man_t_, ptr %3, i32 0, i32 9
  %5 = load i32, ptr %4, align 4, !tbaa !38
  ret i32 %5
}

; Function Attrs: inlinehint nounwind uwtable
define internal i32 @Aig_ObjCioId(ptr noundef %0) #2 {
  %2 = alloca ptr, align 8
  store ptr %0, ptr %2, align 8, !tbaa !32
  %3 = load ptr, ptr %2, align 8, !tbaa !32
  %4 = getelementptr inbounds nuw %struct.Aig_Obj_t_, ptr %3, i32 0, i32 0
  %5 = load i32, ptr %4, align 8, !tbaa !52
  ret i32 %5
}

; Function Attrs: inlinehint nounwind uwtable
define internal ptr @Aig_ManConst0(ptr noundef %0) #2 {
  %2 = alloca ptr, align 8
  store ptr %0, ptr %2, align 8, !tbaa !36
  %3 = load ptr, ptr %2, align 8, !tbaa !36
  %4 = getelementptr inbounds nuw %struct.Aig_Man_t_, ptr %3, i32 0, i32 6
  %5 = load ptr, ptr %4, align 8, !tbaa !37
  %6 = call ptr @Aig_Not(ptr noundef %5)
  ret ptr %6
}

; Function Attrs: inlinehint nounwind uwtable
define internal ptr @Ssw_ObjFrame(ptr noundef %0, ptr noundef %1, i32 noundef %2) #2 {
  %4 = alloca ptr, align 8
  %5 = alloca ptr, align 8
  %6 = alloca i32, align 4
  store ptr %0, ptr %4, align 8, !tbaa !3
  store ptr %1, ptr %5, align 8, !tbaa !32
  store i32 %2, ptr %6, align 4, !tbaa !21
  %7 = load ptr, ptr %4, align 8, !tbaa !3
  %8 = getelementptr inbounds nuw %struct.Ssw_Man_t_, ptr %7, i32 0, i32 4
  %9 = load ptr, ptr %8, align 8, !tbaa !43
  %10 = load ptr, ptr %4, align 8, !tbaa !3
  %11 = getelementptr inbounds nuw %struct.Ssw_Man_t_, ptr %10, i32 0, i32 1
  %12 = load i32, ptr %11, align 8, !tbaa !22
  %13 = load ptr, ptr %5, align 8, !tbaa !32
  %14 = getelementptr inbounds nuw %struct.Aig_Obj_t_, ptr %13, i32 0, i32 5
  %15 = load i32, ptr %14, align 4, !tbaa !44
  %16 = mul nsw i32 %12, %15
  %17 = load i32, ptr %6, align 4, !tbaa !21
  %18 = add nsw i32 %16, %17
  %19 = sext i32 %18 to i64
  %20 = getelementptr inbounds ptr, ptr %9, i64 %19
  %21 = load ptr, ptr %20, align 8, !tbaa !32
  ret ptr %21
}

; Function Attrs: inlinehint nounwind uwtable
define internal ptr @Vec_PtrEntry(ptr noundef %0, i32 noundef %1) #2 {
  %3 = alloca ptr, align 8
  %4 = alloca i32, align 4
  store ptr %0, ptr %3, align 8, !tbaa !39
  store i32 %1, ptr %4, align 4, !tbaa !21
  %5 = load ptr, ptr %3, align 8, !tbaa !39
  %6 = getelementptr inbounds nuw %struct.Vec_Ptr_t_, ptr %5, i32 0, i32 2
  %7 = load ptr, ptr %6, align 8, !tbaa !40
  %8 = load i32, ptr %4, align 4, !tbaa !21
  %9 = sext i32 %8 to i64
  %10 = getelementptr inbounds ptr, ptr %7, i64 %9
  %11 = load ptr, ptr %10, align 8, !tbaa !42
  ret ptr %11
}

; Function Attrs: inlinehint nounwind uwtable
define internal i32 @Vec_PtrSize(ptr noundef %0) #2 {
  %2 = alloca ptr, align 8
  store ptr %0, ptr %2, align 8, !tbaa !39
  %3 = load ptr, ptr %2, align 8, !tbaa !39
  %4 = getelementptr inbounds nuw %struct.Vec_Ptr_t_, ptr %3, i32 0, i32 1
  %5 = load i32, ptr %4, align 4, !tbaa !45
  ret i32 %5
}

; Function Attrs: nounwind uwtable
define void @Ssw_ManSweepTransferDyn(ptr noundef %0) #0 {
  %2 = alloca ptr, align 8
  %3 = alloca ptr, align 8
  %4 = alloca ptr, align 8
  %5 = alloca ptr, align 8
  %6 = alloca i32, align 4
  %7 = alloca i32, align 4
  %8 = alloca i32, align 4
  store ptr %0, ptr %2, align 8, !tbaa !3
  call void @llvm.lifetime.start.p0(i64 8, ptr %3) #8
  call void @llvm.lifetime.start.p0(i64 8, ptr %4) #8
  call void @llvm.lifetime.start.p0(i64 8, ptr %5) #8
  call void @llvm.lifetime.start.p0(i64 4, ptr %6) #8
  call void @llvm.lifetime.start.p0(i64 4, ptr %7) #8
  call void @llvm.lifetime.start.p0(i64 4, ptr %8) #8
  store i32 0, ptr %6, align 4, !tbaa !21
  br label %9

9:                                                ; preds = %57, %1
  %10 = load i32, ptr %6, align 4, !tbaa !21
  %11 = load ptr, ptr %2, align 8, !tbaa !3
  %12 = getelementptr inbounds nuw %struct.Ssw_Man_t_, ptr %11, i32 0, i32 2
  %13 = load ptr, ptr %12, align 8, !tbaa !23
  %14 = getelementptr inbounds nuw %struct.Aig_Man_t_, ptr %13, i32 0, i32 2
  %15 = load ptr, ptr %14, align 8, !tbaa !24
  %16 = call i32 @Vec_PtrSize(ptr noundef %15)
  %17 = icmp slt i32 %10, %16
  br i1 %17, label %18, label %26

18:                                               ; preds = %9
  %19 = load ptr, ptr %2, align 8, !tbaa !3
  %20 = getelementptr inbounds nuw %struct.Ssw_Man_t_, ptr %19, i32 0, i32 2
  %21 = load ptr, ptr %20, align 8, !tbaa !23
  %22 = getelementptr inbounds nuw %struct.Aig_Man_t_, ptr %21, i32 0, i32 2
  %23 = load ptr, ptr %22, align 8, !tbaa !24
  %24 = load i32, ptr %6, align 4, !tbaa !21
  %25 = call ptr @Vec_PtrEntry(ptr noundef %23, i32 noundef %24)
  store ptr %25, ptr %3, align 8, !tbaa !32
  br label %26

26:                                               ; preds = %18, %9
  %27 = phi i1 [ false, %9 ], [ true, %18 ]
  br i1 %27, label %28, label %60

28:                                               ; preds = %26
  %29 = load ptr, ptr %2, align 8, !tbaa !3
  %30 = load ptr, ptr %3, align 8, !tbaa !32
  %31 = call ptr @Ssw_ObjFrame(ptr noundef %29, ptr noundef %30, i32 noundef 0)
  store ptr %31, ptr %4, align 8, !tbaa !32
  %32 = load ptr, ptr %4, align 8, !tbaa !32
  %33 = load ptr, ptr %2, align 8, !tbaa !3
  %34 = getelementptr inbounds nuw %struct.Ssw_Man_t_, ptr %33, i32 0, i32 3
  %35 = load ptr, ptr %34, align 8, !tbaa !8
  %36 = call ptr @Aig_ManConst0(ptr noundef %35)
  %37 = icmp eq ptr %32, %36
  br i1 %37, label %38, label %43

38:                                               ; preds = %28
  %39 = load ptr, ptr %2, align 8, !tbaa !3
  %40 = getelementptr inbounds nuw %struct.Ssw_Man_t_, ptr %39, i32 0, i32 32
  %41 = load ptr, ptr %40, align 8, !tbaa !85
  %42 = load ptr, ptr %3, align 8, !tbaa !32
  call void @Ssw_SmlObjAssignConst(ptr noundef %41, ptr noundef %42, i32 noundef 0, i32 noundef 0)
  br label %57

43:                                               ; preds = %28
  %44 = load ptr, ptr %2, align 8, !tbaa !3
  %45 = getelementptr inbounds nuw %struct.Ssw_Man_t_, ptr %44, i32 0, i32 9
  %46 = load ptr, ptr %45, align 8, !tbaa !86
  %47 = load ptr, ptr %4, align 8, !tbaa !32
  %48 = call i32 @Aig_ObjCioId(ptr noundef %47)
  %49 = call ptr @Vec_PtrEntry(ptr noundef %46, i32 noundef %48)
  store ptr %49, ptr %5, align 8, !tbaa !87
  %50 = load ptr, ptr %2, align 8, !tbaa !3
  %51 = getelementptr inbounds nuw %struct.Ssw_Man_t_, ptr %50, i32 0, i32 32
  %52 = load ptr, ptr %51, align 8, !tbaa !85
  %53 = load ptr, ptr %3, align 8, !tbaa !32
  %54 = load ptr, ptr %5, align 8, !tbaa !87
  %55 = getelementptr inbounds i32, ptr %54, i64 0
  %56 = load i32, ptr %55, align 4, !tbaa !21
  call void @Ssw_SmlObjSetWord(ptr noundef %52, ptr noundef %53, i32 noundef %56, i32 noundef 0, i32 noundef 0)
  br label %57

57:                                               ; preds = %43, %38
  %58 = load i32, ptr %6, align 4, !tbaa !21
  %59 = add nsw i32 %58, 1
  store i32 %59, ptr %6, align 4, !tbaa !21
  br label %9, !llvm.loop !88

60:                                               ; preds = %26
  store i32 1, ptr %7, align 4, !tbaa !21
  br label %61

61:                                               ; preds = %108, %60
  %62 = load i32, ptr %7, align 4, !tbaa !21
  %63 = load ptr, ptr %2, align 8, !tbaa !3
  %64 = getelementptr inbounds nuw %struct.Ssw_Man_t_, ptr %63, i32 0, i32 1
  %65 = load i32, ptr %64, align 8, !tbaa !22
  %66 = icmp slt i32 %62, %65
  br i1 %66, label %67, label %111

67:                                               ; preds = %61
  store i32 0, ptr %6, align 4, !tbaa !21
  br label %68

68:                                               ; preds = %104, %67
  %69 = load i32, ptr %6, align 4, !tbaa !21
  %70 = load ptr, ptr %2, align 8, !tbaa !3
  %71 = getelementptr inbounds nuw %struct.Ssw_Man_t_, ptr %70, i32 0, i32 2
  %72 = load ptr, ptr %71, align 8, !tbaa !23
  %73 = call i32 @Saig_ManPiNum(ptr noundef %72)
  %74 = icmp slt i32 %69, %73
  br i1 %74, label %75, label %83

75:                                               ; preds = %68
  %76 = load ptr, ptr %2, align 8, !tbaa !3
  %77 = getelementptr inbounds nuw %struct.Ssw_Man_t_, ptr %76, i32 0, i32 2
  %78 = load ptr, ptr %77, align 8, !tbaa !23
  %79 = getelementptr inbounds nuw %struct.Aig_Man_t_, ptr %78, i32 0, i32 2
  %80 = load ptr, ptr %79, align 8, !tbaa !24
  %81 = load i32, ptr %6, align 4, !tbaa !21
  %82 = call ptr @Vec_PtrEntry(ptr noundef %80, i32 noundef %81)
  store ptr %82, ptr %3, align 8, !tbaa !32
  br label %83

83:                                               ; preds = %75, %68
  %84 = phi i1 [ false, %68 ], [ true, %75 ]
  br i1 %84, label %85, label %107

85:                                               ; preds = %83
  %86 = load ptr, ptr %2, align 8, !tbaa !3
  %87 = load ptr, ptr %3, align 8, !tbaa !32
  %88 = load i32, ptr %7, align 4, !tbaa !21
  %89 = call ptr @Ssw_ObjFrame(ptr noundef %86, ptr noundef %87, i32 noundef %88)
  store ptr %89, ptr %4, align 8, !tbaa !32
  %90 = load ptr, ptr %2, align 8, !tbaa !3
  %91 = getelementptr inbounds nuw %struct.Ssw_Man_t_, ptr %90, i32 0, i32 9
  %92 = load ptr, ptr %91, align 8, !tbaa !86
  %93 = load ptr, ptr %4, align 8, !tbaa !32
  %94 = call i32 @Aig_ObjCioId(ptr noundef %93)
  %95 = call ptr @Vec_PtrEntry(ptr noundef %92, i32 noundef %94)
  store ptr %95, ptr %5, align 8, !tbaa !87
  %96 = load ptr, ptr %2, align 8, !tbaa !3
  %97 = getelementptr inbounds nuw %struct.Ssw_Man_t_, ptr %96, i32 0, i32 32
  %98 = load ptr, ptr %97, align 8, !tbaa !85
  %99 = load ptr, ptr %3, align 8, !tbaa !32
  %100 = load ptr, ptr %5, align 8, !tbaa !87
  %101 = getelementptr inbounds i32, ptr %100, i64 0
  %102 = load i32, ptr %101, align 4, !tbaa !21
  %103 = load i32, ptr %7, align 4, !tbaa !21
  call void @Ssw_SmlObjSetWord(ptr noundef %98, ptr noundef %99, i32 noundef %102, i32 noundef 0, i32 noundef %103)
  br label %104

104:                                              ; preds = %85
  %105 = load i32, ptr %6, align 4, !tbaa !21
  %106 = add nsw i32 %105, 1
  store i32 %106, ptr %6, align 4, !tbaa !21
  br label %68, !llvm.loop !89

107:                                              ; preds = %83
  br label %108

108:                                              ; preds = %107
  %109 = load i32, ptr %7, align 4, !tbaa !21
  %110 = add nsw i32 %109, 1
  store i32 %110, ptr %7, align 4, !tbaa !21
  br label %61, !llvm.loop !90

111:                                              ; preds = %61
  %112 = load ptr, ptr %2, align 8, !tbaa !3
  %113 = getelementptr inbounds nuw %struct.Ssw_Man_t_, ptr %112, i32 0, i32 32
  %114 = load ptr, ptr %113, align 8, !tbaa !85
  %115 = call i32 @Ssw_SmlNumFrames(ptr noundef %114)
  store i32 %115, ptr %8, align 4, !tbaa !21
  br label %116

116:                                              ; preds = %148, %111
  %117 = load i32, ptr %7, align 4, !tbaa !21
  %118 = load i32, ptr %8, align 4, !tbaa !21
  %119 = icmp slt i32 %117, %118
  br i1 %119, label %120, label %151

120:                                              ; preds = %116
  store i32 0, ptr %6, align 4, !tbaa !21
  br label %121

121:                                              ; preds = %144, %120
  %122 = load i32, ptr %6, align 4, !tbaa !21
  %123 = load ptr, ptr %2, align 8, !tbaa !3
  %124 = getelementptr inbounds nuw %struct.Ssw_Man_t_, ptr %123, i32 0, i32 2
  %125 = load ptr, ptr %124, align 8, !tbaa !23
  %126 = call i32 @Saig_ManPiNum(ptr noundef %125)
  %127 = icmp slt i32 %122, %126
  br i1 %127, label %128, label %136

128:                                              ; preds = %121
  %129 = load ptr, ptr %2, align 8, !tbaa !3
  %130 = getelementptr inbounds nuw %struct.Ssw_Man_t_, ptr %129, i32 0, i32 2
  %131 = load ptr, ptr %130, align 8, !tbaa !23
  %132 = getelementptr inbounds nuw %struct.Aig_Man_t_, ptr %131, i32 0, i32 2
  %133 = load ptr, ptr %132, align 8, !tbaa !24
  %134 = load i32, ptr %6, align 4, !tbaa !21
  %135 = call ptr @Vec_PtrEntry(ptr noundef %133, i32 noundef %134)
  store ptr %135, ptr %3, align 8, !tbaa !32
  br label %136

136:                                              ; preds = %128, %121
  %137 = phi i1 [ false, %121 ], [ true, %128 ]
  br i1 %137, label %138, label %147

138:                                              ; preds = %136
  %139 = load ptr, ptr %2, align 8, !tbaa !3
  %140 = getelementptr inbounds nuw %struct.Ssw_Man_t_, ptr %139, i32 0, i32 32
  %141 = load ptr, ptr %140, align 8, !tbaa !85
  %142 = load ptr, ptr %3, align 8, !tbaa !32
  %143 = load i32, ptr %7, align 4, !tbaa !21
  call void @Ssw_SmlAssignRandomFrame(ptr noundef %141, ptr noundef %142, i32 noundef %143)
  br label %144

144:                                              ; preds = %138
  %145 = load i32, ptr %6, align 4, !tbaa !21
  %146 = add nsw i32 %145, 1
  store i32 %146, ptr %6, align 4, !tbaa !21
  br label %121, !llvm.loop !91

147:                                              ; preds = %136
  br label %148

148:                                              ; preds = %147
  %149 = load i32, ptr %7, align 4, !tbaa !21
  %150 = add nsw i32 %149, 1
  store i32 %150, ptr %7, align 4, !tbaa !21
  br label %116, !llvm.loop !92

151:                                              ; preds = %116
  call void @llvm.lifetime.end.p0(i64 4, ptr %8) #8
  call void @llvm.lifetime.end.p0(i64 4, ptr %7) #8
  call void @llvm.lifetime.end.p0(i64 4, ptr %6) #8
  call void @llvm.lifetime.end.p0(i64 8, ptr %5) #8
  call void @llvm.lifetime.end.p0(i64 8, ptr %4) #8
  call void @llvm.lifetime.end.p0(i64 8, ptr %3) #8
  ret void
}