; Function Attrs: nounwind uwtable
define void @Ssw_ManSweepTransferDyn(ptr noundef readonly captures(none) %0) local_unnamed_addr #2 {
  %2 = getelementptr inbounds nuw i8, ptr %0, i64 16
  %3 = load ptr, ptr %2, align 8, !tbaa !28
  %4 = getelementptr inbounds nuw i8, ptr %3, i64 16
  %5 = load ptr, ptr %4, align 8, !tbaa !30
  %6 = getelementptr i8, ptr %5, i64 4
  %.val6568 = load i32, ptr %6, align 4, !tbaa !41
  %7 = icmp sgt i32 %.val6568, 0
  br i1 %7, label %.lr.ph, label %.critedge.preheader

.lr.ph:                                           ; preds = %1
  %8 = getelementptr i8, ptr %0, i64 8
  %9 = getelementptr i8, ptr %0, i64 32
  %10 = getelementptr inbounds nuw i8, ptr %0, i64 24
  %11 = getelementptr inbounds nuw i8, ptr %0, i64 72
  %12 = getelementptr inbounds nuw i8, ptr %0, i64 200
  br label %23

.critedge.preheader:                              ; preds = %49, %1
  %13 = phi ptr [ %3, %1 ], [ %50, %49 ]
  %14 = getelementptr inbounds nuw i8, ptr %0, i64 8
  %15 = load i32, ptr %14, align 8, !tbaa !27
  %16 = icmp sgt i32 %15, 1
  br i1 %16, label %.preheader67.lr.ph, label %.critedge._crit_edge

.preheader67.lr.ph:                               ; preds = %.critedge.preheader
  %17 = getelementptr i8, ptr %0, i64 32
  %18 = getelementptr inbounds nuw i8, ptr %0, i64 72
  %19 = getelementptr inbounds nuw i8, ptr %0, i64 200
  %20 = getelementptr i8, ptr %13, i64 108
  %21 = load i32, ptr %20, align 4, !tbaa !29
  %22 = icmp sgt i32 %21, 0
  br i1 %22, label %.preheader67, label %.critedge._crit_edge

23:                                               ; preds = %.lr.ph, %49
  %indvars.iv = phi i64 [ 0, %.lr.ph ], [ %indvars.iv.next, %49 ]
  %24 = phi ptr [ %5, %.lr.ph ], [ %52, %49 ]
  %25 = getelementptr i8, ptr %24, i64 8
  %.val56 = load ptr, ptr %25, align 8, !tbaa !31
  %26 = getelementptr inbounds nuw ptr, ptr %.val56, i64 %indvars.iv
  %27 = load ptr, ptr %26, align 8, !tbaa !33
  %.val60 = load i32, ptr %8, align 8, !tbaa !27
  %.val61 = load ptr, ptr %9, align 8, !tbaa !34
  %28 = getelementptr i8, ptr %27, i64 36
  %.val62 = load i32, ptr %28, align 4, !tbaa !35
  %29 = mul nsw i32 %.val62, %.val60
  %30 = sext i32 %29 to i64
  %31 = getelementptr inbounds ptr, ptr %.val61, i64 %30
  %32 = load ptr, ptr %31, align 8, !tbaa !36
  %33 = load ptr, ptr %10, align 8, !tbaa !3
  %34 = getelementptr i8, ptr %33, i64 48
  %.val66 = load ptr, ptr %34, align 8, !tbaa !19
  %35 = ptrtoint ptr %.val66 to i64
  %36 = xor i64 %35, 1
  %37 = inttoptr i64 %36 to ptr
  %38 = icmp eq ptr %32, %37
  br i1 %38, label %39, label %41

39:                                               ; preds = %23
  %40 = load ptr, ptr %12, align 8, !tbaa !81
  tail call void @Ssw_SmlObjAssignConst(ptr noundef %40, ptr noundef nonnull %27, i32 noundef 0, i32 noundef 0) #10
  br label %49

41:                                               ; preds = %23
  %42 = load ptr, ptr %11, align 8, !tbaa !82
  %.val64 = load i32, ptr %32, align 8, !tbaa !46
  %43 = getelementptr i8, ptr %42, i64 8
  %.val55 = load ptr, ptr %43, align 8, !tbaa !31
  %44 = sext i32 %.val64 to i64
  %45 = getelementptr inbounds ptr, ptr %.val55, i64 %44
  %46 = load ptr, ptr %45, align 8, !tbaa !33
  %47 = load ptr, ptr %12, align 8, !tbaa !81
  %48 = load i32, ptr %46, align 4, !tbaa !47
  tail call void @Ssw_SmlObjSetWord(ptr noundef %47, ptr noundef nonnull %27, i32 noundef %48, i32 noundef 0, i32 noundef 0) #10
  br label %49

49:                                               ; preds = %41, %39
  %indvars.iv.next = add nuw nsw i64 %indvars.iv, 1
  %50 = load ptr, ptr %2, align 8, !tbaa !28
  %51 = getelementptr inbounds nuw i8, ptr %50, i64 16
  %52 = load ptr, ptr %51, align 8, !tbaa !30
  %53 = getelementptr i8, ptr %52, i64 4
  %.val65 = load i32, ptr %53, align 4, !tbaa !41
  %54 = sext i32 %.val65 to i64
  %55 = icmp slt i64 %indvars.iv.next, %54
  br i1 %55, label %23, label %.critedge.preheader, !llvm.loop !83

.preheader67:                                     ; preds = %.preheader67.lr.ph, %.critedge2
  %56 = phi i32 [ %83, %.critedge2 ], [ %15, %.preheader67.lr.ph ]
  %57 = phi ptr [ %84, %.critedge2 ], [ %13, %.preheader67.lr.ph ]
  %.073 = phi i32 [ %85, %.critedge2 ], [ 1, %.preheader67.lr.ph ]
  %58 = getelementptr i8, ptr %57, i64 108
  %.val5170 = load i32, ptr %58, align 4, !tbaa !29
  %59 = icmp sgt i32 %.val5170, 0
  br i1 %59, label %.lr.ph72, label %.critedge2

.lr.ph72:                                         ; preds = %.preheader67, %.lr.ph72
  %indvars.iv82 = phi i64 [ %indvars.iv.next83, %.lr.ph72 ], [ 0, %.preheader67 ]
  %60 = phi ptr [ %79, %.lr.ph72 ], [ %57, %.preheader67 ]
  %61 = getelementptr inbounds nuw i8, ptr %60, i64 16
  %62 = load ptr, ptr %61, align 8, !tbaa !30
  %63 = getelementptr i8, ptr %62, i64 8
  %.val54 = load ptr, ptr %63, align 8, !tbaa !31
  %64 = getelementptr inbounds nuw ptr, ptr %.val54, i64 %indvars.iv82
  %65 = load ptr, ptr %64, align 8, !tbaa !33
  %.val57 = load i32, ptr %14, align 8, !tbaa !27
  %.val58 = load ptr, ptr %17, align 8, !tbaa !34
  %66 = getelementptr i8, ptr %65, i64 36
  %.val59 = load i32, ptr %66, align 4, !tbaa !35
  %67 = mul nsw i32 %.val59, %.val57
  %68 = add nsw i32 %67, %.073
  %69 = sext i32 %68 to i64
  %70 = getelementptr inbounds ptr, ptr %.val58, i64 %69
  %71 = load ptr, ptr %70, align 8, !tbaa !36
  %72 = load ptr, ptr %18, align 8, !tbaa !82
  %.val63 = load i32, ptr %71, align 8, !tbaa !46
  %73 = getelementptr i8, ptr %72, i64 8
  %.val53 = load ptr, ptr %73, align 8, !tbaa !31
  %74 = sext i32 %.val63 to i64
  %75 = getelementptr inbounds ptr, ptr %.val53, i64 %74
  %76 = load ptr, ptr %75, align 8, !tbaa !33
  %77 = load ptr, ptr %19, align 8, !tbaa !81
  %78 = load i32, ptr %76, align 4, !tbaa !47
  tail call void @Ssw_SmlObjSetWord(ptr noundef %77, ptr noundef %65, i32 noundef %78, i32 noundef 0, i32 noundef %.073) #10
  %indvars.iv.next83 = add nuw nsw i64 %indvars.iv82, 1
  %79 = load ptr, ptr %2, align 8, !tbaa !28
  %80 = getelementptr i8, ptr %79, i64 108
  %.val51 = load i32, ptr %80, align 4, !tbaa !29
  %81 = sext i32 %.val51 to i64
  %82 = icmp slt i64 %indvars.iv.next83, %81
  br i1 %82, label %.lr.ph72, label %.critedge2.loopexit, !llvm.loop !84

.critedge2.loopexit:                              ; preds = %.lr.ph72
  %.pre = load i32, ptr %14, align 8, !tbaa !27
  br label %.critedge2

.critedge2:                                       ; preds = %.critedge2.loopexit, %.preheader67
  %83 = phi i32 [ %.pre, %.critedge2.loopexit ], [ %56, %.preheader67 ]
  %84 = phi ptr [ %79, %.critedge2.loopexit ], [ %57, %.preheader67 ]
  %85 = add nuw nsw i32 %.073, 1
  %86 = icmp slt i32 %85, %83
  br i1 %86, label %.preheader67, label %.critedge._crit_edge, !llvm.loop !85

.critedge._crit_edge:                             ; preds = %.critedge2, %.preheader67.lr.ph, %.critedge.preheader
  %.0.lcssa = phi i32 [ 1, %.critedge.preheader ], [ %15, %.preheader67.lr.ph ], [ %85, %.critedge2 ]
  %87 = getelementptr inbounds nuw i8, ptr %0, i64 200
  %88 = load ptr, ptr %87, align 8, !tbaa !81
  %89 = tail call i32 @Ssw_SmlNumFrames(ptr noundef %88) #10
  %90 = icmp slt i32 %.0.lcssa, %89
  br i1 %90, label %.preheader.lr.ph, label %._crit_edge

.preheader.lr.ph:                                 ; preds = %.critedge._crit_edge
  %91 = load ptr, ptr %2, align 8, !tbaa !28
  %92 = getelementptr i8, ptr %91, i64 108
  %93 = load i32, ptr %92, align 4, !tbaa !29
  %94 = icmp sgt i32 %93, 0
  br i1 %94, label %.preheader, label %._crit_edge

.preheader:                                       ; preds = %.preheader.lr.ph, %.critedge4
  %95 = phi ptr [ %109, %.critedge4 ], [ %91, %.preheader.lr.ph ]
  %.177 = phi i32 [ %110, %.critedge4 ], [ %.0.lcssa, %.preheader.lr.ph ]
  %96 = getelementptr i8, ptr %95, i64 108
  %.val74 = load i32, ptr %96, align 4, !tbaa !29
  %97 = icmp sgt i32 %.val74, 0
  br i1 %97, label %.lr.ph76, label %.critedge4

.lr.ph76:                                         ; preds = %.preheader, %.lr.ph76
  %indvars.iv85 = phi i64 [ %indvars.iv.next86, %.lr.ph76 ], [ 0, %.preheader ]
  %98 = phi ptr [ %105, %.lr.ph76 ], [ %95, %.preheader ]
  %99 = getelementptr inbounds nuw i8, ptr %98, i64 16
  %100 = load ptr, ptr %99, align 8, !tbaa !30
  %101 = getelementptr i8, ptr %100, i64 8
  %.val52 = load ptr, ptr %101, align 8, !tbaa !31
  %102 = getelementptr inbounds nuw ptr, ptr %.val52, i64 %indvars.iv85
  %103 = load ptr, ptr %102, align 8, !tbaa !33
  %104 = load ptr, ptr %87, align 8, !tbaa !81
  tail call void @Ssw_SmlAssignRandomFrame(ptr noundef %104, ptr noundef %103, i32 noundef %.177) #10
  %indvars.iv.next86 = add nuw nsw i64 %indvars.iv85, 1
  %105 = load ptr, ptr %2, align 8, !tbaa !28
  %106 = getelementptr i8, ptr %105, i64 108
  %.val = load i32, ptr %106, align 4, !tbaa !29
  %107 = sext i32 %.val to i64
  %108 = icmp slt i64 %indvars.iv.next86, %107
  br i1 %108, label %.lr.ph76, label %.critedge4, !llvm.loop !86

.critedge4:                                       ; preds = %.lr.ph76, %.preheader
  %109 = phi ptr [ %95, %.preheader ], [ %105, %.lr.ph76 ]
  %110 = add nuw i32 %.177, 1
  %exitcond.not = icmp eq i32 %110, %89
  br i1 %exitcond.not, label %._crit_edge, label %.preheader, !llvm.loop !87

._crit_edge:                                      ; preds = %.critedge4, %.preheader.lr.ph, %.critedge._crit_edge
  ret void
}